target datalayout = "e-m:e-p270:32:32-p271:32:32-p272:64:64-i64:64-i128:128-f80:128-n8:16:32:64-S128"
target triple = "x86_64-unknown-linux-gnu"

%struct.ShaktiUartState = type { %struct.SysBusDevice, %struct.MemoryRegion, i32, i32, i32, i32, i32, i32, i32, i32, i32, %struct.CharBackend }
%struct.SysBusDevice = type { %struct.DeviceState, i32, [32 x %struct.anon], i32, [32 x i32] }
%struct.DeviceState = type { %struct.Object, ptr, ptr, i8, i8, i64, ptr, i32, i8, ptr, %struct.NamedGPIOListHead, %struct.NamedClockListHead, %struct.BusStateHead, i32, i32, i32, %struct.ResettableState, ptr, %struct.MemReentrancyGuard }
%struct.Object = type { ptr, ptr, ptr, i32, ptr }
%struct.NamedGPIOListHead = type { ptr }
%struct.NamedClockListHead = type { ptr }
%struct.BusStateHead = type { ptr }
%struct.ResettableState = type { i32, i8, i8 }
%struct.MemReentrancyGuard = type { i8 }
%struct.anon = type { i64, ptr }
%struct.MemoryRegion = type { %struct.Object, i8, i8, i8, i8, i8, i8, i8, i8, i8, i8, ptr, ptr, ptr, ptr, ptr, ptr, i32, i128, i64, ptr, i64, i8, i8, i8, i8, i8, ptr, i64, i32, %union.anon, %union.anon.0, %union.anon.1, ptr, i32, ptr, ptr, i8 }
%union.anon = type { %struct.QTailQLink }
%struct.QTailQLink = type { ptr, ptr }
%union.anon.0 = type { %struct.QTailQLink }
%union.anon.1 = type { %struct.QTailQLink }
%struct.CharBackend = type { ptr, ptr, ptr, ptr, ptr, ptr, i32, i32 }

@.str = private unnamed_addr constant [12 x i8] c"shakti-uart\00", align 1
@.str.2 = private unnamed_addr constant [30 x i8] c"../qemu/hw/char/shakti_uart.c\00", align 1
@__func__.shakti_uart_reset = private unnamed_addr constant [18 x i8] c"shakti_uart_reset\00", align 1

; Function Attrs: nounwind sspstrong uwtable
define internal void @shakti_uart_reset(ptr noundef %dev) #0 {
entry:
  %dev.addr = alloca ptr, align 8
  %s = alloca ptr, align 8
  store ptr %dev, ptr %dev.addr, align 8
  %0 = load ptr, ptr %dev.addr, align 8
  %call = call ptr @object_dynamic_cast_assert(ptr noundef %0, ptr noundef @.str, ptr noundef @.str.2, i32 noundef 113, ptr noundef @__func__.shakti_uart_reset)
  store ptr %call, ptr %s, align 8
  %1 = load ptr, ptr %s, align 8
  %uart_baud = getelementptr inbounds %struct.ShaktiUartState, ptr %1, i32 0, i32 2
  store i32 325, ptr %uart_baud, align 16
  %2 = load ptr, ptr %s, align 8
  %uart_tx = getelementptr inbounds %struct.ShaktiUartState, ptr %2, i32 0, i32 3
  store i32 0, ptr %uart_tx, align 4
  %3 = load ptr, ptr %s, align 8
  %uart_rx = getelementptr inbounds %struct.ShaktiUartState, ptr %3, i32 0, i32 4
  store i32 0, ptr %uart_rx, align 8
  %4 = load ptr, ptr %s, align 8
  %uart_status = getelementptr inbounds %struct.ShaktiUartState, ptr %4, i32 0, i32 5
  store i32 0, ptr %uart_status, align 4
  %5 = load ptr, ptr %s, align 8
  %uart_delay = getelementptr inbounds %struct.ShaktiUartState, ptr %5, i32 0, i32 6
  store i32 0, ptr %uart_delay, align 16
  %6 = load ptr, ptr %s, align 8
  %uart_control = getelementptr inbounds %struct.ShaktiUartState, ptr %6, i32 0, i32 7
  store i32 256, ptr %uart_control, align 4
  %7 = load ptr, ptr %s, align 8
  %uart_interrupt = getelementptr inbounds %struct.ShaktiUartState, ptr %7, i32 0, i32 8
  store i32 0, ptr %uart_interrupt, align 8
  %8 = load ptr, ptr %s, align 8
  %uart_iq_cycles = getelementptr inbounds %struct.ShaktiUartState, ptr %8, i32 0, i32 9
  store i32 0, ptr %uart_iq_cycles, align 4
  %9 = load ptr, ptr %s, align 8
  %uart_rx_threshold = getelementptr inbounds %struct.ShaktiUartState, ptr %9, i32 0, i32 10
  store i32 0, ptr %uart_rx_threshold, align 16
  ret void
}