; Function Attrs: nounwind sspstrong uwtable
define internal void @shakti_uart_reset(ptr noundef %dev) #0 {
entry:
  %call = tail call ptr @object_dynamic_cast_assert(ptr noundef %dev, ptr noundef nonnull @.str, ptr noundef nonnull @.str.2, i32 noundef 113, ptr noundef nonnull @__func__.shakti_uart_reset) #6
  %uart_baud = getelementptr inbounds nuw i8, ptr %call, i64 1088
  store i32 325, ptr %uart_baud, align 16
  %uart_tx = getelementptr inbounds nuw i8, ptr %call, i64 1092
  %uart_control = getelementptr inbounds nuw i8, ptr %call, i64 1108
  tail call void @llvm.memset.p0.i64(ptr noundef nonnull align 4 dereferenceable(16) %uart_tx, i8 0, i64 16, i1 false)
  store i32 256, ptr %uart_control, align 4
  %uart_interrupt = getelementptr inbounds nuw i8, ptr %call, i64 1112
  store i32 0, ptr %uart_interrupt, align 8
  %uart_iq_cycles = getelementptr inbounds nuw i8, ptr %call, i64 1116
  store i32 0, ptr %uart_iq_cycles, align 4
  %uart_rx_threshold = getelementptr inbounds nuw i8, ptr %call, i64 1120
  store i32 0, ptr %uart_rx_threshold, align 16
  ret void
}